; Function Attrs: nounwind sspstrong uwtable
define internal void @reachable_object_i(i64 noundef %0, ptr noundef %1) #0 {
  %3 = alloca [20 x i8], align 16
  %4 = alloca [20 x i8], align 16
  %5 = getelementptr inbounds nuw i8, ptr %1, i64 48
  %6 = load i64, ptr %5, align 8, !tbaa !31
  %7 = icmp eq i64 %6, %0
  br i1 %7, label %43, label %8

8:                                                ; preds = %2
  %9 = getelementptr inbounds nuw i8, ptr %1, i64 64
  %10 = load i64, ptr %9, align 8, !tbaa !29
  %11 = icmp eq i64 %10, 0
  %.not12.i.i = icmp eq i64 %0, 0
  br i1 %11, label %12, label %26

12:                                               ; preds = %8
  tail call fastcc void @buffer_append(ptr noundef nonnull %1, ptr noundef nonnull @.str.103, i64 noundef 16)
  call void @llvm.lifetime.start.p0(i64 20, ptr nonnull %4) #12
  %13 = getelementptr inbounds nuw i8, ptr %4, i64 19
  store i8 34, ptr %13, align 1, !tbaa !34
  br i1 %.not12.i.i, label %dump_append_ref.exit, label %.lr.ph.i.i

.lr.ph.i.i:                                       ; preds = %12, %.lr.ph.i.i
  %.014.i.i = phi i64 [ %18, %.lr.ph.i.i ], [ %0, %12 ]
  %.01113.i.i = phi ptr [ %17, %.lr.ph.i.i ], [ %13, %12 ]
  %14 = and i64 %.014.i.i, 15
  %15 = getelementptr inbounds nuw [0 x i8], ptr @ruby_hexdigits, i64 0, i64 %14
  %16 = load i8, ptr %15, align 1, !tbaa !34
  %17 = getelementptr inbounds i8, ptr %.01113.i.i, i64 -1
  store i8 %16, ptr %17, align 1, !tbaa !34
  %18 = lshr i64 %.014.i.i, 4
  %.not.i.i = icmp ult i64 %.014.i.i, 16
  br i1 %.not.i.i, label %dump_append_ref.exit, label %.lr.ph.i.i, !llvm.loop !35

dump_append_ref.exit:                             ; preds = %.lr.ph.i.i, %12
  %.011.lcssa.i.i = phi ptr [ %13, %12 ], [ %17, %.lr.ph.i.i ]
  %19 = getelementptr inbounds nuw i8, ptr %4, i64 20
  %20 = getelementptr inbounds i8, ptr %.011.lcssa.i.i, i64 -1
  store i8 120, ptr %20, align 1, !tbaa !34
  %21 = getelementptr inbounds i8, ptr %.011.lcssa.i.i, i64 -2
  store i8 48, ptr %21, align 1, !tbaa !34
  %22 = getelementptr inbounds i8, ptr %.011.lcssa.i.i, i64 -3
  store i8 34, ptr %22, align 1, !tbaa !34
  %23 = ptrtoint ptr %19 to i64
  %24 = ptrtoint ptr %22 to i64
  %25 = sub i64 %23, %24
  call fastcc void @buffer_append(ptr noundef nonnull %1, ptr noundef nonnull %22, i64 noundef %25)
  call void @llvm.lifetime.end.p0(i64 20, ptr nonnull %4) #12
  br label %40

26:                                               ; preds = %8
  tail call fastcc void @buffer_append(ptr noundef nonnull %1, ptr noundef nonnull @.str.48, i64 noundef 2)
  call void @llvm.lifetime.start.p0(i64 20, ptr nonnull %3) #12
  %27 = getelementptr inbounds nuw i8, ptr %3, i64 19
  store i8 34, ptr %27, align 1, !tbaa !34
  br i1 %.not12.i.i, label %dump_append_ref.exit16, label %.lr.ph.i.i11

.lr.ph.i.i11:                                     ; preds = %26, %.lr.ph.i.i11
  %.014.i.i12 = phi i64 [ %32, %.lr.ph.i.i11 ], [ %0, %26 ]
  %.01113.i.i13 = phi ptr [ %31, %.lr.ph.i.i11 ], [ %27, %26 ]
  %28 = and i64 %.014.i.i12, 15
  %29 = getelementptr inbounds nuw [0 x i8], ptr @ruby_hexdigits, i64 0, i64 %28
  %30 = load i8, ptr %29, align 1, !tbaa !34
  %31 = getelementptr inbounds i8, ptr %.01113.i.i13, i64 -1
  store i8 %30, ptr %31, align 1, !tbaa !34
  %32 = lshr i64 %.014.i.i12, 4
  %.not.i.i14 = icmp ult i64 %.014.i.i12, 16
  br i1 %.not.i.i14, label %dump_append_ref.exit16, label %.lr.ph.i.i11, !llvm.loop !35

dump_append_ref.exit16:                           ; preds = %.lr.ph.i.i11, %26
  %.011.lcssa.i.i15 = phi ptr [ %27, %26 ], [ %31, %.lr.ph.i.i11 ]
  %33 = getelementptr inbounds nuw i8, ptr %3, i64 20
  %34 = getelementptr inbounds i8, ptr %.011.lcssa.i.i15, i64 -1
  store i8 120, ptr %34, align 1, !tbaa !34
  %35 = getelementptr inbounds i8, ptr %.011.lcssa.i.i15, i64 -2
  store i8 48, ptr %35, align 1, !tbaa !34
  %36 = getelementptr inbounds i8, ptr %.011.lcssa.i.i15, i64 -3
  store i8 34, ptr %36, align 1, !tbaa !34
  %37 = ptrtoint ptr %33 to i64
  %38 = ptrtoint ptr %36 to i64
  %39 = sub i64 %37, %38
  call fastcc void @buffer_append(ptr noundef nonnull %1, ptr noundef nonnull %36, i64 noundef %39)
  call void @llvm.lifetime.end.p0(i64 20, ptr nonnull %3) #12
  br label %40

40:                                               ; preds = %dump_append_ref.exit16, %dump_append_ref.exit
  %41 = load i64, ptr %9, align 8, !tbaa !29
  %42 = add i64 %41, 1
  store i64 %42, ptr %9, align 8, !tbaa !29
  br label %43

43:                                               ; preds = %2, %40
  ret void
}